target datalayout = "e-m:e-p270:32:32-p271:32:32-p272:64:64-i64:64-i128:128-f80:128-n8:16:32:64-S128"
target triple = "x86_64-pc-linux-gnu"

@hf_afp_pad = internal global i32 0, align 4
@hf_afp_did = internal global i32 0, align 4
@hf_afp_dt_ref = internal global i32 0, align 4
@hf_afp_comment = internal global i32 0, align 4
@.str.1065 = private unnamed_addr constant [9 x i8] c"Path: %s\00", align 1

; Function Attrs: null_pointer_is_valid sspstrong uwtable
define internal i32 @decode_name(ptr noundef %0, ptr noundef %1, ptr noundef %2, i32 noundef %3) #1 {
  %5 = alloca ptr, align 8
  %6 = alloca ptr, align 8
  %7 = alloca ptr, align 8
  %8 = alloca i32, align 4
  store ptr %0, ptr %5, align 8
  store ptr %1, ptr %6, align 8
  store ptr %2, ptr %7, align 8
  store i32 %3, ptr %8, align 4
  %9 = load ptr, ptr %5, align 8
  %10 = load ptr, ptr %6, align 8
  %11 = load ptr, ptr %7, align 8
  %12 = load i32, ptr %8, align 4
  %13 = call i32 @decode_name_label(ptr noundef %9, ptr noundef %10, ptr noundef %11, i32 noundef %12, ptr noundef @.str.1065, i1 noundef zeroext true)
  ret i32 %13
}

; Function Attrs: null_pointer_is_valid sspstrong uwtable
define internal i32 @dissect_query_afp_add_cmt(ptr noundef %0, ptr noundef %1, ptr noundef %2, i32 noundef %3) #1 {
  %5 = alloca ptr, align 8
  %6 = alloca ptr, align 8
  %7 = alloca ptr, align 8
  %8 = alloca i32, align 4
  %9 = alloca i8, align 1
  store ptr %0, ptr %5, align 8
  store ptr %1, ptr %6, align 8
  store ptr %2, ptr %7, align 8
  store i32 %3, ptr %8, align 4
  call void @llvm.lifetime.start.p0(i64 1, ptr %9) #8
  %10 = load ptr, ptr %7, align 8
  %11 = load i32, ptr @hf_afp_pad, align 4
  %12 = load ptr, ptr %5, align 8
  %13 = load i32, ptr %8, align 4
  %14 = call ptr @proto_tree_add_item(ptr noundef %10, i32 noundef %11, ptr noundef %12, i32 noundef %13, i32 noundef 1, i32 noundef 0)
  %15 = load i32, ptr %8, align 4
  %16 = add i32 %15, 1
  store i32 %16, ptr %8, align 4
  %17 = load ptr, ptr %7, align 8
  %18 = load i32, ptr @hf_afp_dt_ref, align 4
  %19 = load ptr, ptr %5, align 8
  %20 = load i32, ptr %8, align 4
  %21 = call ptr @proto_tree_add_item(ptr noundef %17, i32 noundef %18, ptr noundef %19, i32 noundef %20, i32 noundef 2, i32 noundef 0)
  %22 = load i32, ptr %8, align 4
  %23 = add i32 %22, 2
  store i32 %23, ptr %8, align 4
  %24 = load ptr, ptr %7, align 8
  %25 = load i32, ptr @hf_afp_did, align 4
  %26 = load ptr, ptr %5, align 8
  %27 = load i32, ptr %8, align 4
  %28 = call ptr @proto_tree_add_item(ptr noundef %24, i32 noundef %25, ptr noundef %26, i32 noundef %27, i32 noundef 4, i32 noundef 0)
  %29 = load i32, ptr %8, align 4
  %30 = add i32 %29, 4
  store i32 %30, ptr %8, align 4
  %31 = load ptr, ptr %7, align 8
  %32 = load ptr, ptr %6, align 8
  %33 = load ptr, ptr %5, align 8
  %34 = load i32, ptr %8, align 4
  %35 = call i32 @decode_name(ptr noundef %31, ptr noundef %32, ptr noundef %33, i32 noundef %34)
  store i32 %35, ptr %8, align 4
  %36 = load i32, ptr %8, align 4
  %37 = and i32 %36, 1
  %38 = icmp ne i32 %37, 0
  br i1 %38, label %39, label %47

39:                                               ; preds = %4
  %40 = load ptr, ptr %7, align 8
  %41 = load i32, ptr @hf_afp_pad, align 4
  %42 = load ptr, ptr %5, align 8
  %43 = load i32, ptr %8, align 4
  %44 = call ptr @proto_tree_add_item(ptr noundef %40, i32 noundef %41, ptr noundef %42, i32 noundef %43, i32 noundef 1, i32 noundef 0)
  %45 = load i32, ptr %8, align 4
  %46 = add i32 %45, 1
  store i32 %46, ptr %8, align 4
  br label %47

47:                                               ; preds = %39, %4
  %48 = load ptr, ptr %5, align 8
  %49 = load i32, ptr %8, align 4
  %50 = call zeroext i8 @tvb_get_uint8(ptr noundef %48, i32 noundef %49)
  store i8 %50, ptr %9, align 1
  %51 = load ptr, ptr %7, align 8
  %52 = load i32, ptr @hf_afp_comment, align 4
  %53 = load ptr, ptr %5, align 8
  %54 = load i32, ptr %8, align 4
  %55 = call ptr @proto_tree_add_item(ptr noundef %51, i32 noundef %52, ptr noundef %53, i32 noundef %54, i32 noundef 1, i32 noundef 2)
  %56 = load i8, ptr %9, align 1
  %57 = zext i8 %56 to i32
  %58 = add i32 %57, 1
  %59 = load i32, ptr %8, align 4
  %60 = add i32 %59, %58
  store i32 %60, ptr %8, align 4
  %61 = load i32, ptr %8, align 4
  call void @llvm.lifetime.end.p0(i64 1, ptr %9) #8
  ret i32 %61
}