; Function Attrs: null_pointer_is_valid sspstrong uwtable
define internal fastcc i32 @dissect_query_afp_add_cmt(ptr noundef %0, ptr noundef readonly captures(none) %1, ptr noundef %2) unnamed_addr #1 {
  %4 = load i32, ptr @hf_afp_pad, align 4
  %5 = tail call ptr @proto_tree_add_item(ptr noundef %2, i32 noundef %4, ptr noundef %0, i32 noundef 1, i32 noundef 1, i32 noundef 0)
  %6 = load i32, ptr @hf_afp_dt_ref, align 4
  %7 = tail call ptr @proto_tree_add_item(ptr noundef %2, i32 noundef %6, ptr noundef %0, i32 noundef 2, i32 noundef 2, i32 noundef 0)
  %8 = load i32, ptr @hf_afp_did, align 4
  %9 = tail call ptr @proto_tree_add_item(ptr noundef %2, i32 noundef %8, ptr noundef %0, i32 noundef 4, i32 noundef 4, i32 noundef 0)
  %10 = tail call fastcc i32 @decode_name_label(ptr noundef %2, ptr noundef readonly %1, ptr noundef %0, i32 noundef 8, ptr noundef nonnull @.str.1065, i1 noundef zeroext true)
  %11 = and i32 %10, 1
  %.not = icmp eq i32 %11, 0
  br i1 %.not, label %16, label %12

12:                                               ; preds = %3
  %13 = load i32, ptr @hf_afp_pad, align 4
  %14 = tail call ptr @proto_tree_add_item(ptr noundef %2, i32 noundef %13, ptr noundef %0, i32 noundef %10, i32 noundef 1, i32 noundef 0)
  %15 = add i32 %10, 1
  br label %16

16:                                               ; preds = %12, %3
  %.0 = phi i32 [ %15, %12 ], [ %10, %3 ]
  %17 = tail call zeroext i8 @tvb_get_uint8(ptr noundef %0, i32 noundef %.0)
  %18 = load i32, ptr @hf_afp_comment, align 4
  %19 = tail call ptr @proto_tree_add_item(ptr noundef %2, i32 noundef %18, ptr noundef %0, i32 noundef %.0, i32 noundef 1, i32 noundef 2)
  %20 = zext i8 %17 to i32
  %21 = add i32 %.0, 1
  %22 = add i32 %21, %20
  ret i32 %22
}